; Function Attrs: mustprogress nounwind uwtable
define internal fastcc void @_ZN12_GLOBAL__N_114MuxcoverWorker8newmux_tD2Ev(ptr nocapture noundef nonnull readonly align 8 dereferenceable(56) %0) unnamed_addr #3 align 2 personality ptr @__gxx_personality_v0 {
  %2 = getelementptr inbounds i8, ptr %0, i64 32
  %3 = load ptr, ptr %2, align 8
  %.not.i.i.i = icmp eq ptr %3, null
  br i1 %.not.i.i.i, label %_ZNSt6vectorIN5Yosys5RTLIL6SigBitESaIS2_EED2Ev.exit, label %4

4:                                                ; preds = %1
  tail call void @_ZdlPv(ptr noundef nonnull %3) #20
  br label %_ZNSt6vectorIN5Yosys5RTLIL6SigBitESaIS2_EED2Ev.exit

_ZNSt6vectorIN5Yosys5RTLIL6SigBitESaIS2_EED2Ev.exit: ; preds = %1, %4
  %5 = getelementptr inbounds i8, ptr %0, i64 8
  %6 = load ptr, ptr %5, align 8
  %.not.i.i.i1 = icmp eq ptr %6, null
  br i1 %.not.i.i.i1, label %_ZNSt6vectorIN5Yosys5RTLIL6SigBitESaIS2_EED2Ev.exit2, label %7

7:                                                ; preds = %_ZNSt6vectorIN5Yosys5RTLIL6SigBitESaIS2_EED2Ev.exit
  tail call void @_ZdlPv(ptr noundef nonnull %6) #20
  br label %_ZNSt6vectorIN5Yosys5RTLIL6SigBitESaIS2_EED2Ev.exit2

_ZNSt6vectorIN5Yosys5RTLIL6SigBitESaIS2_EED2Ev.exit2: ; preds = %_ZNSt6vectorIN5Yosys5RTLIL6SigBitESaIS2_EED2Ev.exit, %7
  ret void
}